CCS PCM C Compiler, Version 4.104, 5967               01-ago-24 10:50

               Filename: C:\Micro\IntExtB0\mainIntExt.lst

               ROM used: 146 words (2%)
                         Largest free fragment is 2048
               RAM used: 13 (4%) at main() level
                         13 (4%) worst case
               Stack:    1 worst case (0 in main + 1 for interrupts)

*
0000:  MOVLW  00
0001:  MOVWF  0A
0002:  GOTO   039
0003:  NOP
0004:  MOVWF  7F
0005:  SWAPF  03,W
0006:  CLRF   03
0007:  MOVWF  21
0008:  MOVF   0A,W
0009:  MOVWF  20
000A:  CLRF   0A
000B:  MOVF   04,W
000C:  MOVWF  22
000D:  MOVF   77,W
000E:  MOVWF  23
000F:  MOVF   78,W
0010:  MOVWF  24
0011:  MOVF   79,W
0012:  MOVWF  25
0013:  MOVF   7A,W
0014:  MOVWF  26
0015:  BCF    03.7
0016:  BCF    03.5
0017:  BTFSS  0B.4
0018:  GOTO   01B
0019:  BTFSC  0B.1
001A:  GOTO   02C
001B:  MOVF   22,W
001C:  MOVWF  04
001D:  MOVF   23,W
001E:  MOVWF  77
001F:  MOVF   24,W
0020:  MOVWF  78
0021:  MOVF   25,W
0022:  MOVWF  79
0023:  MOVF   26,W
0024:  MOVWF  7A
0025:  MOVF   20,W
0026:  MOVWF  0A
0027:  SWAPF  21,W
0028:  MOVWF  03
0029:  SWAPF  7F,F
002A:  SWAPF  7F,W
002B:  RETFIE
002C:  BCF    0A.3
002D:  BCF    0A.4
002E:  GOTO   02F
.................... //#include "C:\Micro\IntExtB0\mainIntExt.h" 
.................... #include <16F877A.h> 
.................... //////// Standard Header file for the PIC16F877A device //////////////// 
.................... #device PIC16F877A 
.................... #list 
....................  
.................... #device adc=8 
....................  
.................... #FUSES NOWDT                    //No Watch Dog Timer 
.................... #FUSES HS                       //High speed Osc (> 4mhz for PCM/PCH) (>10mhz for PCD) 
.................... #FUSES NOPUT                    //No Power Up Timer 
.................... #FUSES NOPROTECT                //Code not protected from reading 
.................... #FUSES NODEBUG                  //No Debug mode for ICD 
.................... #FUSES NOBROWNOUT               //No brownout reset 
.................... #FUSES NOLVP                    //No low voltage prgming, B3(PIC16) or B5(PIC18) used for I/O 
.................... #FUSES NOCPD                    //No EE protection 
.................... #FUSES NOWRT                    //Program memory not write protected 
.................... #FUSES RESERVED                 //Used to set the reserved FUSE bits 
....................  
.................... #use delay(clock=20000000) 
....................  
.................... #int_EXT 
.................... void  EXT_isr(void)  
.................... { 
....................    clear_interrupt(INT_EXT); 
*
002F:  BCF    0B.1
....................    output_toggle(PIN_D2); 
0030:  BSF    03.5
0031:  BCF    08.2
0032:  MOVLW  04
0033:  BCF    03.5
0034:  XORWF  08,F
.................... } 
....................  
....................  
....................  
0035:  BCF    0B.1
0036:  BCF    0A.3
0037:  BCF    0A.4
0038:  GOTO   01B
.................... void main() 
.................... { 
0039:  CLRF   04
003A:  BCF    03.7
003B:  MOVLW  1F
003C:  ANDWF  03,F
003D:  BSF    03.5
003E:  BSF    1F.0
003F:  BSF    1F.1
0040:  BSF    1F.2
0041:  BCF    1F.3
0042:  MOVLW  07
0043:  MOVWF  1C
....................  
....................    setup_adc_ports(NO_ANALOGS); 
*
0047:  BSF    03.5
0048:  BSF    1F.0
0049:  BSF    1F.1
004A:  BSF    1F.2
004B:  BCF    1F.3
....................    setup_adc(ADC_CLOCK_DIV_2); 
004C:  BCF    1F.6
004D:  BCF    03.5
004E:  BCF    1F.6
004F:  BCF    1F.7
0050:  BSF    03.5
0051:  BCF    1F.7
0052:  BCF    03.5
0053:  BSF    1F.0
....................    setup_psp(PSP_DISABLED); 
0054:  BSF    03.5
0055:  BCF    09.4
....................    setup_spi(SPI_SS_DISABLED); 
0056:  BCF    03.5
0057:  BCF    14.5
0058:  BCF    27.5
0059:  MOVF   27,W
005A:  BSF    03.5
005B:  MOVWF  07
005C:  BCF    03.5
005D:  BSF    27.4
005E:  MOVF   27,W
005F:  BSF    03.5
0060:  MOVWF  07
0061:  BCF    03.5
0062:  BCF    27.3
0063:  MOVF   27,W
0064:  BSF    03.5
0065:  MOVWF  07
0066:  MOVLW  01
0067:  BCF    03.5
0068:  MOVWF  14
0069:  MOVLW  00
006A:  BSF    03.5
006B:  MOVWF  14
....................    setup_timer_0(RTCC_INTERNAL|RTCC_DIV_1); 
006C:  MOVF   01,W
006D:  ANDLW  C7
006E:  IORLW  08
006F:  MOVWF  01
....................    setup_timer_1(T1_DISABLED); 
0070:  BCF    03.5
0071:  CLRF   10
....................    setup_timer_2(T2_DISABLED,0,1); 
0072:  MOVLW  00
0073:  MOVWF  78
0074:  MOVWF  12
0075:  MOVLW  00
0076:  BSF    03.5
0077:  MOVWF  12
....................    setup_comparator(NC_NC_NC_NC); 
0078:  MOVLW  07
0079:  MOVWF  1C
007A:  MOVF   05,W
007B:  MOVWF  05
007C:  MOVLW  10
007D:  MOVWF  77
007E:  DECFSZ 77,F
007F:  GOTO   07E
0080:  NOP
0081:  MOVF   1C,W
0082:  BCF    03.5
0083:  BCF    0D.6
....................    setup_vref(FALSE); 
0084:  BSF    03.5
0085:  CLRF   1D
....................     
....................    output_low(PIN_D2); 
0086:  BCF    08.2
0087:  BCF    03.5
0088:  BCF    08.2
....................    clear_interrupt(INT_EXT); 
0089:  BCF    0B.1
....................    ext_int_edge(H_TO_L); 
008A:  BSF    03.5
008B:  BCF    01.6
....................     
....................    enable_interrupts(INT_EXT); 
008C:  BCF    03.5
008D:  BSF    0B.4
....................    enable_interrupts(GLOBAL); 
008E:  MOVLW  C0
008F:  IORWF  0B,F
....................  
....................    // TODO: USER CODE!! 
....................    while(true){ 
....................     
....................    } 
0090:  GOTO   090
.................... } 
0091:  SLEEP

Configuration Fuses:
   Word  1: 3F3A   HS NOWDT NOPUT NODEBUG NOPROTECT NOBROWNOUT NOLVP NOCPD NOWRT
