CCS PCM C Compiler, Version 4.104, 5967               04-abr-24 18:24

               Filename: C:\Users\julio\OneDrive\Documentos\Julio Cesar Jauer\Eng. da Comp. IFMT\Microcontroladores\Radio\mainRadio.lst

               ROM used: 170 words (2%)
                         Largest free fragment is 2048
               RAM used: 14 (4%) at main() level
                         14 (4%) worst case
               Stack:    1 worst case (0 in main + 1 for interrupts)

*
0000:  MOVLW  00
0001:  MOVWF  0A
0002:  GOTO   039
0003:  NOP
0004:  MOVWF  7F
0005:  SWAPF  03,W
0006:  CLRF   03
0007:  MOVWF  21
0008:  MOVF   0A,W
0009:  MOVWF  20
000A:  CLRF   0A
000B:  MOVF   04,W
000C:  MOVWF  22
000D:  MOVF   77,W
000E:  MOVWF  23
000F:  MOVF   78,W
0010:  MOVWF  24
0011:  MOVF   79,W
0012:  MOVWF  25
0013:  MOVF   7A,W
0014:  MOVWF  26
0015:  BCF    03.7
0016:  BCF    03.5
0017:  MOVLW  8C
0018:  MOVWF  04
0019:  BTFSS  00.5
001A:  GOTO   01D
001B:  BTFSC  0C.5
001C:  GOTO   02E
001D:  MOVF   22,W
001E:  MOVWF  04
001F:  MOVF   23,W
0020:  MOVWF  77
0021:  MOVF   24,W
0022:  MOVWF  78
0023:  MOVF   25,W
0024:  MOVWF  79
0025:  MOVF   26,W
0026:  MOVWF  7A
0027:  MOVF   20,W
0028:  MOVWF  0A
0029:  SWAPF  21,W
002A:  MOVWF  03
002B:  SWAPF  7F,F
002C:  SWAPF  7F,W
002D:  RETFIE
002E:  BCF    0A.3
002F:  BCF    0A.4
0030:  GOTO   031
.................... #include <16F877A.h> 
.................... //////// Standard Header file for the PIC16F877A device //////////////// 
.................... #device PIC16F877A 
.................... #list 
....................  
.................... #device adc=8 
....................  
.................... #FUSES NOWDT                    //No Watch Dog Timer 
.................... #FUSES HS                       //High speed Osc (> 4mhz for PCM/PCH) (>10mhz for PCD) 
.................... #FUSES NOPUT                    //No Power Up Timer 
.................... #FUSES NOPROTECT                //Code not protected from reading 
.................... #FUSES NODEBUG                  //No Debug mode for ICD 
.................... #FUSES BROWNOUT                 //Reset when brownout detected 
.................... #FUSES NOLVP                    //No low voltage prgming, B3(PIC16) or B5(PIC18) used for I/O 
.................... #FUSES NOCPD                    //No EE protection 
.................... #FUSES NOWRT                    //Program memory not write protected 
.................... #FUSES RESERVED                 //Used to set the reserved FUSE bits 
....................  
.................... #use delay(clock=6000000) 
.................... #use rs232(baud=4800,parity=N,xmit=PIN_C6,rcv=PIN_C7,bits=8) 
....................  
.................... unsigned int8 entrada; 
....................  
.................... #int_RDA 
.................... void  RDA_isr(void)  
.................... { 
....................  entrada = getc(); 
*
0031:  BTFSS  0C.5
0032:  GOTO   031
0033:  MOVF   1A,W
0034:  MOVWF  27
.................... } 
....................  
0035:  BCF    0C.5
0036:  BCF    0A.3
0037:  BCF    0A.4
0038:  GOTO   01D
.................... void main() 
.................... { 
0039:  CLRF   04
003A:  BCF    03.7
003B:  MOVLW  1F
003C:  ANDWF  03,F
003D:  MOVLW  4D
003E:  BSF    03.5
003F:  MOVWF  19
0040:  MOVLW  A6
0041:  MOVWF  18
0042:  MOVLW  90
0043:  BCF    03.5
0044:  MOVWF  18
0045:  BSF    03.5
0046:  BSF    1F.0
0047:  BSF    1F.1
0048:  BSF    1F.2
0049:  BCF    1F.3
004A:  MOVLW  07
004B:  MOVWF  1C
....................  
....................    setup_adc_ports(NO_ANALOGS); 
*
004F:  BSF    03.5
0050:  BSF    1F.0
0051:  BSF    1F.1
0052:  BSF    1F.2
0053:  BCF    1F.3
....................    setup_adc(ADC_CLOCK_DIV_2); 
0054:  BCF    1F.6
0055:  BCF    03.5
0056:  BCF    1F.6
0057:  BCF    1F.7
0058:  BSF    03.5
0059:  BCF    1F.7
005A:  BCF    03.5
005B:  BSF    1F.0
....................    setup_psp(PSP_DISABLED); 
005C:  BSF    03.5
005D:  BCF    09.4
....................    setup_spi(SPI_SS_DISABLED); 
005E:  BCF    03.5
005F:  BCF    14.5
0060:  BCF    28.5
0061:  MOVF   28,W
0062:  BSF    03.5
0063:  MOVWF  07
0064:  BCF    03.5
0065:  BSF    28.4
0066:  MOVF   28,W
0067:  BSF    03.5
0068:  MOVWF  07
0069:  BCF    03.5
006A:  BCF    28.3
006B:  MOVF   28,W
006C:  BSF    03.5
006D:  MOVWF  07
006E:  MOVLW  01
006F:  BCF    03.5
0070:  MOVWF  14
0071:  MOVLW  00
0072:  BSF    03.5
0073:  MOVWF  14
....................    setup_timer_0(RTCC_INTERNAL|RTCC_DIV_1); 
0074:  MOVF   01,W
0075:  ANDLW  C7
0076:  IORLW  08
0077:  MOVWF  01
....................    setup_timer_1(T1_DISABLED); 
0078:  BCF    03.5
0079:  CLRF   10
....................    setup_timer_2(T2_DISABLED,0,1); 
007A:  MOVLW  00
007B:  MOVWF  78
007C:  MOVWF  12
007D:  MOVLW  00
007E:  BSF    03.5
007F:  MOVWF  12
....................    setup_comparator(NC_NC_NC_NC); 
0080:  MOVLW  07
0081:  MOVWF  1C
0082:  MOVF   05,W
0083:  MOVWF  05
0084:  MOVLW  04
0085:  MOVWF  77
0086:  DECFSZ 77,F
0087:  GOTO   086
0088:  GOTO   089
0089:  MOVF   1C,W
008A:  BCF    03.5
008B:  BCF    0D.6
....................    setup_vref(FALSE); 
008C:  BSF    03.5
008D:  CLRF   1D
....................     
....................    enable_interrupts(INT_RDA); 
008E:  BSF    0C.5
....................    enable_interrupts(GLOBAL); 
008F:  MOVLW  C0
0090:  BCF    03.5
0091:  IORWF  0B,F
....................  
....................    set_tris_c (0x80); 
0092:  MOVLW  80
0093:  BSF    03.5
0094:  MOVWF  07
0095:  BCF    03.5
0096:  MOVWF  28
....................  
....................    // TODO: USER CODE!! 
....................    while(true){ 
....................     
....................       if(entrada == 'B') { 
0097:  MOVF   27,W
0098:  SUBLW  42
0099:  BTFSS  03.2
009A:  GOTO   0A0
....................         output_high(PIN_D0); 
009B:  BSF    03.5
009C:  BCF    08.0
009D:  BCF    03.5
009E:  BSF    08.0
....................       } 
....................       else if(entrada == 'A') { 
009F:  GOTO   0A8
00A0:  MOVF   27,W
00A1:  SUBLW  41
00A2:  BTFSS  03.2
00A3:  GOTO   0A8
....................         output_low(PIN_D0); 
00A4:  BSF    03.5
00A5:  BCF    08.0
00A6:  BCF    03.5
00A7:  BCF    08.0
....................       } 
....................    } 
00A8:  GOTO   097
.................... } 
00A9:  SLEEP

Configuration Fuses:
   Word  1: 3F7A   HS NOWDT NOPUT NODEBUG NOPROTECT BROWNOUT NOLVP NOCPD NOWRT
