CCS PCM C Compiler, Version 4.104, 5967               21-mar-24 17:34

               Filename: C:\Micro\processing\serialProcessing.lst

               ROM used: 225 words (3%)
                         Largest free fragment is 2048
               RAM used: 14 (4%) at main() level
                         19 (5%) worst case
               Stack:    2 locations

*
0000:  MOVLW  00
0001:  MOVWF  0A
0002:  GOTO   069
0003:  NOP
.................... //#include "C:\Micro\processing\serialProcessing.h" 
....................  
.................... #include <16F877A.h> 
.................... //////// Standard Header file for the PIC16F877A device //////////////// 
.................... #device PIC16F877A 
.................... #list 
....................  
.................... #device adc=8 
....................  
.................... #FUSES NOWDT                    //No Watch Dog Timer 
.................... #FUSES HS                       //High speed Osc (> 4mhz for PCM/PCH) (>10mhz for PCD) 
.................... #FUSES NOPUT                    //No Power Up Timer 
.................... #FUSES NOPROTECT                //Code not protected from reading 
.................... #FUSES NODEBUG                  //No Debug mode for ICD 
.................... #FUSES NOBROWNOUT               //No brownout reset 
.................... #FUSES NOLVP                    //No low voltage prgming, B3(PIC16) or B5(PIC18) used for I/O 
.................... #FUSES NOCPD                    //No EE protection 
.................... #FUSES NOWRT                    //Program memory not write protected 
.................... #FUSES RESERVED                 //Used to set the reserved FUSE bits 
....................  
.................... #use delay(clock=20000000) 
*
0053:  MOVLW  29
0054:  MOVWF  04
0055:  BCF    03.7
0056:  MOVF   00,W
0057:  BTFSC  03.2
0058:  GOTO   066
0059:  MOVLW  06
005A:  MOVWF  78
005B:  CLRF   77
005C:  DECFSZ 77,F
005D:  GOTO   05C
005E:  DECFSZ 78,F
005F:  GOTO   05B
0060:  MOVLW  7B
0061:  MOVWF  77
0062:  DECFSZ 77,F
0063:  GOTO   062
0064:  DECFSZ 00,F
0065:  GOTO   059
0066:  BCF    0A.3
0067:  BCF    0A.4
0068:  GOTO   0DD (RETURN)
....................  
.................... #use rs232(baud=9600, parity=N,xmit=PIN_C6,RCV=PIN_C7,bits=8,STREAM=Wireless) //115200 
....................  
.................... unsigned int i; 
.................... unsigned int n = 2;  //ganho 
.................... unsigned long int r = 3;   //referencia 
.................... float Y_anterior =0.0;  //saída atual 
.................... void main() 
.................... { 
0069:  CLRF   04
006A:  BCF    03.7
006B:  MOVLW  1F
006C:  ANDWF  03,F
006D:  MOVLW  81
006E:  BSF    03.5
006F:  MOVWF  19
0070:  MOVLW  A6
0071:  MOVWF  18
0072:  MOVLW  90
0073:  BCF    03.5
0074:  MOVWF  18
0075:  MOVLW  02
0076:  MOVWF  21
0077:  CLRF   23
0078:  MOVLW  03
0079:  MOVWF  22
007A:  CLRF   27
007B:  CLRF   26
007C:  CLRF   25
007D:  CLRF   24
007E:  BSF    03.5
007F:  BSF    1F.0
0080:  BSF    1F.1
0081:  BSF    1F.2
0082:  BCF    1F.3
0083:  MOVLW  07
0084:  MOVWF  1C
....................  
....................    setup_adc_ports(NO_ANALOGS); 
*
0088:  BSF    03.5
0089:  BSF    1F.0
008A:  BSF    1F.1
008B:  BSF    1F.2
008C:  BCF    1F.3
....................    setup_adc(ADC_CLOCK_DIV_2); 
008D:  BCF    1F.6
008E:  BCF    03.5
008F:  BCF    1F.6
0090:  BCF    1F.7
0091:  BSF    03.5
0092:  BCF    1F.7
0093:  BCF    03.5
0094:  BSF    1F.0
....................    setup_psp(PSP_DISABLED); 
0095:  BSF    03.5
0096:  BCF    09.4
....................    setup_spi(SPI_SS_DISABLED); 
0097:  BCF    03.5
0098:  BCF    14.5
0099:  BCF    28.5
009A:  MOVF   28,W
009B:  BSF    03.5
009C:  MOVWF  07
009D:  BCF    03.5
009E:  BSF    28.4
009F:  MOVF   28,W
00A0:  BSF    03.5
00A1:  MOVWF  07
00A2:  BCF    03.5
00A3:  BCF    28.3
00A4:  MOVF   28,W
00A5:  BSF    03.5
00A6:  MOVWF  07
00A7:  MOVLW  01
00A8:  BCF    03.5
00A9:  MOVWF  14
00AA:  MOVLW  00
00AB:  BSF    03.5
00AC:  MOVWF  14
....................    setup_timer_0(RTCC_INTERNAL|RTCC_DIV_1); 
00AD:  MOVF   01,W
00AE:  ANDLW  C7
00AF:  IORLW  08
00B0:  MOVWF  01
....................    setup_timer_1(T1_DISABLED); 
00B1:  BCF    03.5
00B2:  CLRF   10
....................    setup_timer_2(T2_DISABLED,0,1); 
00B3:  MOVLW  00
00B4:  MOVWF  78
00B5:  MOVWF  12
00B6:  MOVLW  00
00B7:  BSF    03.5
00B8:  MOVWF  12
....................    setup_comparator(NC_NC_NC_NC); 
00B9:  MOVLW  07
00BA:  MOVWF  1C
00BB:  MOVF   05,W
00BC:  MOVWF  05
00BD:  MOVLW  10
00BE:  MOVWF  77
00BF:  DECFSZ 77,F
00C0:  GOTO   0BF
00C1:  NOP
00C2:  MOVF   1C,W
00C3:  BCF    03.5
00C4:  BCF    0D.6
....................    setup_vref(FALSE); 
00C5:  BSF    03.5
00C6:  CLRF   1D
....................     
....................    while(true){ 
....................       for(i =0;i<=200;i++){ 
00C7:  BCF    03.5
00C8:  CLRF   20
00C9:  MOVF   20,W
00CA:  SUBLW  C8
00CB:  BTFSS  03.0
00CC:  GOTO   0DF
....................          fprintf(Wireless,"%u \n",i); 
00CD:  MOVF   20,W
00CE:  MOVWF  29
00CF:  MOVLW  1B
00D0:  MOVWF  2A
00D1:  GOTO   019
00D2:  MOVLW  20
00D3:  BTFSS  0C.4
00D4:  GOTO   0D3
00D5:  MOVWF  19
00D6:  MOVLW  0A
00D7:  BTFSS  0C.4
00D8:  GOTO   0D7
00D9:  MOVWF  19
....................          delay_ms(100); 
00DA:  MOVLW  64
00DB:  MOVWF  29
00DC:  GOTO   053
....................       } 
00DD:  INCF   20,F
00DE:  GOTO   0C9
....................    }   
00DF:  GOTO   0C8
....................    // TODO: USER CODE!! 
....................  
.................... } 
00E0:  SLEEP

Configuration Fuses:
   Word  1: 3F3A   HS NOWDT NOPUT NODEBUG NOPROTECT NOBROWNOUT NOLVP NOCPD NOWRT
