CCS PCM C Compiler, Version 4.104, 5967               01-ago-24 10:34

               Filename: C:\Micro\timer01\mainTimer01.lst

               ROM used: 187 words (2%)
                         Largest free fragment is 2048
               RAM used: 14 (4%) at main() level
                         16 (4%) worst case
               Stack:    2 worst case (1 in main + 1 for interrupts)

*
0000:  MOVLW  00
0001:  MOVWF  0A
0002:  GOTO   052
0003:  NOP
0004:  MOVWF  7F
0005:  SWAPF  03,W
0006:  CLRF   03
0007:  MOVWF  21
0008:  MOVF   0A,W
0009:  MOVWF  20
000A:  CLRF   0A
000B:  MOVF   04,W
000C:  MOVWF  22
000D:  MOVF   77,W
000E:  MOVWF  23
000F:  MOVF   78,W
0010:  MOVWF  24
0011:  MOVF   79,W
0012:  MOVWF  25
0013:  MOVF   7A,W
0014:  MOVWF  26
0015:  BCF    03.7
0016:  BCF    03.5
0017:  BTFSS  0B.5
0018:  GOTO   01B
0019:  BTFSC  0B.2
001A:  GOTO   02C
001B:  MOVF   22,W
001C:  MOVWF  04
001D:  MOVF   23,W
001E:  MOVWF  77
001F:  MOVF   24,W
0020:  MOVWF  78
0021:  MOVF   25,W
0022:  MOVWF  79
0023:  MOVF   26,W
0024:  MOVWF  7A
0025:  MOVF   20,W
0026:  MOVWF  0A
0027:  SWAPF  21,W
0028:  MOVWF  03
0029:  SWAPF  7F,F
002A:  SWAPF  7F,W
002B:  RETFIE
002C:  BCF    0A.3
002D:  BCF    0A.4
002E:  GOTO   02F
.................... //#include "C:\Micro\timer01\mainTimer01.h" 
.................... #include <16F877A.h> 
.................... //////// Standard Header file for the PIC16F877A device //////////////// 
.................... #device PIC16F877A 
.................... #list 
....................  
.................... #device adc=8 
....................  
.................... #FUSES NOWDT                    //No Watch Dog Timer 
.................... #FUSES HS                       //High speed Osc (> 4mhz for PCM/PCH) (>10mhz for PCD) 
.................... #FUSES NOPUT                    //No Power Up Timer 
.................... #FUSES NOPROTECT                //Code not protected from reading 
.................... #FUSES NODEBUG                  //No Debug mode for ICD 
.................... #FUSES NOBROWNOUT               //No brownout reset 
.................... #FUSES NOLVP                    //No low voltage prgming, B3(PIC16) or B5(PIC18) used for I/O 
.................... #FUSES NOCPD                    //No EE protection 
.................... #FUSES NOWRT                    //Program memory not write protected 
.................... #FUSES RESERVED                 //Used to set the reserved FUSE bits 
....................  
.................... #use delay(clock=20000000) 
*
003E:  MOVLW  29
003F:  MOVWF  04
0040:  BCF    03.7
0041:  MOVF   00,W
0042:  BTFSC  03.2
0043:  GOTO   051
0044:  MOVLW  06
0045:  MOVWF  78
0046:  CLRF   77
0047:  DECFSZ 77,F
0048:  GOTO   047
0049:  DECFSZ 78,F
004A:  GOTO   046
004B:  MOVLW  7B
004C:  MOVWF  77
004D:  DECFSZ 77,F
004E:  GOTO   04D
004F:  DECFSZ 00,F
0050:  GOTO   044
0051:  RETURN
....................  
.................... #int_RTCC 
.................... void  RTCC_isr(void)  
.................... {   
....................    int8 contador; 
....................    if(++contador>=76){ 
*
002F:  INCF   2A,F
0030:  MOVF   2A,W
0031:  SUBLW  4B
0032:  BTFSC  03.0
0033:  GOTO   03A
....................       output_toggle(PIN_D0); 
0034:  BSF    03.5
0035:  BCF    08.0
0036:  MOVLW  01
0037:  BCF    03.5
0038:  XORWF  08,F
....................       contador = 0; 
0039:  CLRF   2A
....................    } 
.................... } 
....................  
....................  
....................  
003A:  BCF    0B.2
003B:  BCF    0A.3
003C:  BCF    0A.4
003D:  GOTO   01B
.................... void main() 
.................... { 
*
0052:  CLRF   04
0053:  BCF    03.7
0054:  MOVLW  1F
0055:  ANDWF  03,F
0056:  BSF    03.5
0057:  BSF    1F.0
0058:  BSF    1F.1
0059:  BSF    1F.2
005A:  BCF    1F.3
005B:  MOVLW  07
005C:  MOVWF  1C
....................  
....................    setup_adc_ports(NO_ANALOGS); 
*
0060:  BSF    03.5
0061:  BSF    1F.0
0062:  BSF    1F.1
0063:  BSF    1F.2
0064:  BCF    1F.3
....................    setup_adc(ADC_CLOCK_DIV_2); 
0065:  BCF    1F.6
0066:  BCF    03.5
0067:  BCF    1F.6
0068:  BCF    1F.7
0069:  BSF    03.5
006A:  BCF    1F.7
006B:  BCF    03.5
006C:  BSF    1F.0
....................    setup_psp(PSP_DISABLED); 
006D:  BSF    03.5
006E:  BCF    09.4
....................    setup_spi(SPI_SS_DISABLED); 
006F:  BCF    03.5
0070:  BCF    14.5
0071:  BCF    27.5
0072:  MOVF   27,W
0073:  BSF    03.5
0074:  MOVWF  07
0075:  BCF    03.5
0076:  BSF    27.4
0077:  MOVF   27,W
0078:  BSF    03.5
0079:  MOVWF  07
007A:  BCF    03.5
007B:  BCF    27.3
007C:  MOVF   27,W
007D:  BSF    03.5
007E:  MOVWF  07
007F:  MOVLW  01
0080:  BCF    03.5
0081:  MOVWF  14
0082:  MOVLW  00
0083:  BSF    03.5
0084:  MOVWF  14
....................     
....................    setup_timer_0(RTCC_INTERNAL|RTCC_DIV_256); 
0085:  MOVF   01,W
0086:  ANDLW  C0
0087:  IORLW  07
0088:  MOVWF  01
....................    setup_timer_1(T1_DISABLED); 
0089:  BCF    03.5
008A:  CLRF   10
....................    setup_timer_2(T2_DISABLED,0,1); 
008B:  MOVLW  00
008C:  MOVWF  78
008D:  MOVWF  12
008E:  MOVLW  00
008F:  BSF    03.5
0090:  MOVWF  12
....................     
....................    setup_comparator(NC_NC_NC_NC); 
0091:  MOVLW  07
0092:  MOVWF  1C
0093:  MOVF   05,W
0094:  MOVWF  05
0095:  MOVLW  10
0096:  MOVWF  77
0097:  DECFSZ 77,F
0098:  GOTO   097
0099:  NOP
009A:  MOVF   1C,W
009B:  BCF    03.5
009C:  BCF    0D.6
....................    setup_vref(FALSE); 
009D:  BSF    03.5
009E:  CLRF   1D
....................     
....................    enable_interrupts(INT_RTCC); 
009F:  BCF    03.5
00A0:  BSF    0B.5
....................    enable_interrupts(GLOBAL); 
00A1:  MOVLW  C0
00A2:  IORWF  0B,F
....................  
....................    // TODO: USER CODE!! 
....................    while(true){ 
....................       output_high(PIN_D2); 
00A3:  BSF    03.5
00A4:  BCF    08.2
00A5:  BCF    03.5
00A6:  BSF    08.2
....................       delay_ms(2000); 
00A7:  MOVLW  08
00A8:  MOVWF  28
00A9:  MOVLW  FA
00AA:  MOVWF  29
00AB:  CALL   03E
00AC:  DECFSZ 28,F
00AD:  GOTO   0A9
....................       output_low(PIN_D2); 
00AE:  BSF    03.5
00AF:  BCF    08.2
00B0:  BCF    03.5
00B1:  BCF    08.2
....................       delay_ms(2000); 
00B2:  MOVLW  08
00B3:  MOVWF  28
00B4:  MOVLW  FA
00B5:  MOVWF  29
00B6:  CALL   03E
00B7:  DECFSZ 28,F
00B8:  GOTO   0B4
....................    } 
00B9:  GOTO   0A3
....................  
.................... } 
00BA:  SLEEP

Configuration Fuses:
   Word  1: 3F3A   HS NOWDT NOPUT NODEBUG NOPROTECT NOBROWNOUT NOLVP NOCPD NOWRT
