CCS PCM C Compiler, Version 4.104, 5967               01-jul-24 09:19

               Filename: C:\Micro\TesteServoVelMen\testeMenosVeloc.lst

               ROM used: 681 words (8%)
                         Largest free fragment is 2048
               RAM used: 26 (7%) at main() level
                         50 (14%) worst case
               Stack:    4 worst case (3 in main + 1 for interrupts)

*
0000:  MOVLW  01
0001:  MOVWF  0A
0002:  GOTO   192
0003:  NOP
0004:  MOVWF  7F
0005:  SWAPF  03,W
0006:  CLRF   03
0007:  MOVWF  21
0008:  MOVF   0A,W
0009:  MOVWF  20
000A:  CLRF   0A
000B:  MOVF   04,W
000C:  MOVWF  22
000D:  MOVF   77,W
000E:  MOVWF  23
000F:  MOVF   78,W
0010:  MOVWF  24
0011:  MOVF   79,W
0012:  MOVWF  25
0013:  MOVF   7A,W
0014:  MOVWF  26
0015:  BCF    03.7
0016:  BCF    03.5
0017:  BTFSS  0B.5
0018:  GOTO   01B
0019:  BTFSC  0B.2
001A:  GOTO   02C
001B:  MOVF   22,W
001C:  MOVWF  04
001D:  MOVF   23,W
001E:  MOVWF  77
001F:  MOVF   24,W
0020:  MOVWF  78
0021:  MOVF   25,W
0022:  MOVWF  79
0023:  MOVF   26,W
0024:  MOVWF  7A
0025:  MOVF   20,W
0026:  MOVWF  0A
0027:  SWAPF  21,W
0028:  MOVWF  03
0029:  SWAPF  7F,F
002A:  SWAPF  7F,W
002B:  RETFIE
002C:  BCF    0A.3
002D:  BCF    0A.4
002E:  GOTO   02F
.................... #include <16F877A.h> 
.................... //////// Standard Header file for the PIC16F877A device //////////////// 
.................... #device PIC16F877A 
.................... #list 
....................  
.................... #device adc=8 
....................  
.................... #FUSES NOWDT                    //No Watch Dog Timer 
.................... #FUSES HS                       //High speed Osc (> 4mhz for PCM/PCH) (>10mhz for PCD) 
.................... #FUSES NOPUT                    //No Power Up Timer 
.................... #FUSES NOPROTECT                //Code not protected from reading 
.................... #FUSES NODEBUG                  //No Debug mode for ICD 
.................... #FUSES NOBROWNOUT               //No brownout reset 
.................... #FUSES NOLVP                    //No low voltage prgming, B3(PIC16) or B5(PIC18) used for I/O 
.................... #FUSES NOCPD                    //No EE protection 
.................... #FUSES NOWRT                    //Program memory not write protected 
.................... #FUSES RESERVED                 //Used to set the reserved FUSE bits 
....................  
.................... #use delay(clock=6000000) 
*
0137:  MOVLW  39
0138:  MOVWF  04
0139:  BCF    03.7
013A:  MOVF   00,W
013B:  BTFSC  03.2
013C:  GOTO   14B
013D:  MOVLW  01
013E:  MOVWF  78
013F:  CLRF   77
0140:  DECFSZ 77,F
0141:  GOTO   140
0142:  DECFSZ 78,F
0143:  GOTO   13F
0144:  MOVLW  F1
0145:  MOVWF  77
0146:  DECFSZ 77,F
0147:  GOTO   146
0148:  NOP
0149:  DECFSZ 00,F
014A:  GOTO   13D
014B:  RETURN
....................  
.................... #define use_servo_1 
.................... #define use_servo_2 
.................... #define use_servo_3 
....................  
.................... #define servo_1 PIN_B0 
.................... #define servo_2 PIN_B1 
.................... #define servo_3 PIN_B2 
....................  
.................... #include <servo_st.c> 
.................... /* #include <servo_st.c> 
.................... * 
.................... * Creada por: Ing. Abiezer Hernandez O. 
.................... * Fecha de creacion: 26/05/2020 
.................... * Electronica y Circuitos 
.................... * 
.................... */ 
....................  
.................... #define v_min 11 
.................... #define v_max 48 
....................  
.................... int16 cont_st = 0; 
.................... int8 pwm_st[10]; 
....................  
.................... #INT_TIMER0 
.................... void timer_0() 
.................... { 
....................    cont_st = cont_st + 1; 
*
002F:  MOVLW  01
0030:  ADDWF  27,F
0031:  BTFSC  03.0
0032:  INCF   28,F
....................    if(cont_st > 385) 
0033:  MOVF   28,W
0034:  SUBLW  00
0035:  BTFSC  03.0
0036:  GOTO   040
0037:  XORLW  FF
0038:  BTFSS  03.2
0039:  GOTO   03E
003A:  MOVF   27,W
003B:  SUBLW  81
003C:  BTFSC  03.0
003D:  GOTO   040
....................    { 
....................       cont_st = 0; 
003E:  CLRF   28
003F:  CLRF   27
....................    } 
....................    #ifdef use_servo_1 
....................    if(cont_st < pwm_st[0]){output_high(servo_1);} else{output_low(servo_1);} 
0040:  MOVF   28,F
0041:  BTFSS  03.2
0042:  GOTO   04C
0043:  MOVF   29,W
0044:  SUBWF  27,W
0045:  BTFSC  03.0
0046:  GOTO   04C
0047:  BSF    03.5
0048:  BCF    06.0
0049:  BCF    03.5
004A:  BSF    06.0
004B:  GOTO   050
004C:  BSF    03.5
004D:  BCF    06.0
004E:  BCF    03.5
004F:  BCF    06.0
....................    #endif 
....................     
....................    #ifdef use_servo_2 
....................    if(cont_st < pwm_st[1]){output_high(servo_2);} else{output_low(servo_2);} 
0050:  MOVF   28,F
0051:  BTFSS  03.2
0052:  GOTO   05C
0053:  MOVF   2A,W
0054:  SUBWF  27,W
0055:  BTFSC  03.0
0056:  GOTO   05C
0057:  BSF    03.5
0058:  BCF    06.1
0059:  BCF    03.5
005A:  BSF    06.1
005B:  GOTO   060
005C:  BSF    03.5
005D:  BCF    06.1
005E:  BCF    03.5
005F:  BCF    06.1
....................    #endif 
....................     
....................    #ifdef use_servo_3 
....................    if(cont_st < pwm_st[2]){output_high(servo_3);} else{output_low(servo_3);} 
0060:  MOVF   28,F
0061:  BTFSS  03.2
0062:  GOTO   06C
0063:  MOVF   2B,W
0064:  SUBWF  27,W
0065:  BTFSC  03.0
0066:  GOTO   06C
0067:  BSF    03.5
0068:  BCF    06.2
0069:  BCF    03.5
006A:  BSF    06.2
006B:  GOTO   070
006C:  BSF    03.5
006D:  BCF    06.2
006E:  BCF    03.5
006F:  BCF    06.2
....................    #endif 
....................     
....................    #ifdef use_servo_4 
....................    if(cont_st < pwm_st[3]){output_high(servo_4);} else{output_low(servo_4);} 
....................    #endif 
....................     
....................    #ifdef use_servo_5 
....................    if(cont_st < pwm_st[4]){output_high(servo_5);} else{output_low(servo_5);} 
....................    #endif 
....................     
....................    #ifdef use_servo_6 
....................    if(cont_st < pwm_st[5]){output_high(servo_6);} else{output_low(servo_6);} 
....................    #endif 
....................     
....................    #ifdef use_servo_7 
....................    if(cont_st < pwm_st[6]){output_high(servo_7);} else{output_low(servo_7);} 
....................    #endif 
....................     
....................    #ifdef use_servo_8 
....................    if(cont_st < pwm_st[7]){output_high(servo_8);} else{output_low(servo_8);} 
....................    #endif 
....................     
....................    #ifdef use_servo_9 
....................    if(cont_st < pwm_st[8]){output_high(servo_9);} else{output_low(servo_9);} 
....................    #endif 
....................     
....................    #ifdef use_servo_10 
....................    if(cont_st < pwm_st[9]){output_high(servo_10);} else{output_low(servo_10);} 
....................    #endif 
.................... } 
....................  
0070:  BCF    0B.2
0071:  BCF    0A.3
0072:  BCF    0A.4
0073:  GOTO   01B
.................... void servo_init() 
.................... { 
....................    setup_timer_0(RTCC_INTERNAL | RTCC_DIV_1); 
0074:  BSF    03.5
0075:  MOVF   01,W
0076:  ANDLW  C7
0077:  IORLW  08
0078:  MOVWF  01
....................    enable_interrupts(INT_TIMER0); 
0079:  BCF    03.5
007A:  BSF    0B.5
....................    enable_interrupts(GLOBAL); 
007B:  MOVLW  C0
007C:  IORWF  0B,F
....................    set_timer0(230); 
007D:  MOVLW  E6
007E:  MOVWF  01
.................... } 
007F:  BCF    0A.3
0080:  BCF    0A.4
0081:  GOTO   1E3 (RETURN)
....................  
.................... long map_int(int16 x, int16 eMin, int16 eMax, int16 sMin, int16 sMax) 
.................... { 
....................    return(x -eMin)*(sMax-sMin)/(eMax-eMin)+sMin; 
0082:  MOVF   3C,W
0083:  SUBWF  3A,W
0084:  MOVWF  44
0085:  MOVF   3B,W
0086:  MOVWF  45
0087:  MOVF   3D,W
0088:  BTFSS  03.0
0089:  INCFSZ 3D,W
008A:  SUBWF  45,F
008B:  MOVF   40,W
008C:  SUBWF  42,W
008D:  MOVWF  77
008E:  MOVF   43,W
008F:  MOVWF  7A
0090:  MOVF   41,W
0091:  BTFSS  03.0
0092:  INCFSZ 41,W
0093:  SUBWF  7A,F
0094:  MOVF   77,W
0095:  MOVWF  46
0096:  MOVF   7A,W
0097:  MOVWF  47
0098:  MOVF   45,W
0099:  MOVWF  49
009A:  MOVF   44,W
009B:  MOVWF  48
009C:  MOVF   47,W
009D:  MOVWF  4B
009E:  MOVF   46,W
009F:  MOVWF  4A
*
00B4:  MOVF   79,W
00B5:  MOVWF  45
00B6:  MOVF   78,W
00B7:  MOVWF  44
00B8:  MOVF   3C,W
00B9:  SUBWF  3E,W
00BA:  MOVWF  77
00BB:  MOVF   3F,W
00BC:  MOVWF  7A
00BD:  MOVF   3D,W
00BE:  BTFSS  03.0
00BF:  INCFSZ 3D,W
00C0:  SUBWF  7A,F
00C1:  MOVF   77,W
00C2:  MOVWF  46
00C3:  MOVF   7A,W
00C4:  MOVWF  47
00C5:  MOVF   45,W
00C6:  MOVWF  49
00C7:  MOVF   44,W
00C8:  MOVWF  48
00C9:  MOVF   47,W
00CA:  MOVWF  4B
00CB:  MOVF   46,W
00CC:  MOVWF  4A
*
00F1:  MOVF   79,W
00F2:  MOVWF  45
00F3:  MOVF   78,W
00F4:  MOVWF  44
00F5:  MOVF   40,W
00F6:  ADDWF  78,W
00F7:  MOVWF  78
00F8:  MOVF   79,W
00F9:  MOVWF  7A
00FA:  MOVF   41,W
00FB:  BTFSC  03.0
00FC:  INCFSZ 41,W
00FD:  ADDWF  7A,F
00FE:  MOVF   7A,W
00FF:  MOVWF  79
.................... } 
0100:  RETURN
....................  
.................... #ifdef use_servo_1 
.................... void servo_1_write(int angle1) 
.................... { 
....................    pwm_st[0] = map_int(angle1, 0, 180, v_min, v_max); 
0101:  CLRF   3B
0102:  MOVF   39,W
0103:  MOVWF  3A
0104:  CLRF   3D
0105:  CLRF   3C
0106:  CLRF   3F
0107:  MOVLW  B4
0108:  MOVWF  3E
0109:  CLRF   41
010A:  MOVLW  0B
010B:  MOVWF  40
010C:  CLRF   43
010D:  MOVLW  30
010E:  MOVWF  42
010F:  CALL   082
0110:  MOVF   78,W
0111:  MOVWF  29
.................... } 
0112:  RETURN
.................... #endif 
....................  
.................... #ifdef use_servo_2 
.................... void servo_2_write(int angle2) 
.................... { 
....................    pwm_st[1] = map_int(angle2, 0, 180, v_min, v_max); 
0113:  CLRF   3B
0114:  MOVF   39,W
0115:  MOVWF  3A
0116:  CLRF   3D
0117:  CLRF   3C
0118:  CLRF   3F
0119:  MOVLW  B4
011A:  MOVWF  3E
011B:  CLRF   41
011C:  MOVLW  0B
011D:  MOVWF  40
011E:  CLRF   43
011F:  MOVLW  30
0120:  MOVWF  42
0121:  CALL   082
0122:  MOVF   78,W
0123:  MOVWF  2A
.................... } 
0124:  RETURN
.................... #endif 
....................  
.................... #ifdef use_servo_3 
.................... void servo_3_write(int angle3) 
.................... { 
....................    pwm_st[2] = map_int(angle3, 0, 180, v_min, v_max); 
0125:  CLRF   3B
0126:  MOVF   39,W
0127:  MOVWF  3A
0128:  CLRF   3D
0129:  CLRF   3C
012A:  CLRF   3F
012B:  MOVLW  B4
012C:  MOVWF  3E
012D:  CLRF   41
012E:  MOVLW  0B
012F:  MOVWF  40
0130:  CLRF   43
0131:  MOVLW  30
0132:  MOVWF  42
0133:  CALL   082
0134:  MOVF   78,W
0135:  MOVWF  2B
.................... } 
0136:  RETURN
.................... #endif 
....................  
.................... #ifdef use_servo_4 
.................... void servo_4_write(int angle4) 
.................... { 
....................    pwm_st[3] = map_int(angle4, 0, 180, v_min, v_max); 
.................... } 
.................... #endif 
....................  
.................... #ifdef use_servo_5 
.................... void servo_5_write(int angle5) 
.................... { 
....................    pwm_st[4] = map_int(angle5, 0, 180, v_min, v_max); 
.................... } 
.................... #endif 
....................  
.................... #ifdef use_servo_6 
.................... void servo_6_write(int angle6) 
.................... { 
....................    pwm_st[5] = map_int(angle6, 0, 180, v_min, v_max); 
.................... } 
.................... #endif 
....................  
.................... #ifdef use_servo_7 
.................... void servo_7_write(int angle7) 
.................... { 
....................    pwm_st[6] = map_int(angle7, 0, 180, v_min, v_max); 
.................... } 
.................... #endif 
....................  
.................... #ifdef use_servo_8 
.................... void servo_8_write(int angle8) 
.................... { 
....................    pwm_st[7] = map_int(angle8, 0, 180, v_min, v_max); 
.................... } 
.................... #endif 
....................  
.................... #ifdef use_servo_9 
.................... void servo_9_write(int angle9) 
.................... { 
....................    pwm_st[8] = map_int(angle9, 0, 180, v_min, v_max); 
.................... } 
.................... #endif 
....................  
.................... #ifdef use_servo_10 
.................... void servo_10_write(int angle10) 
.................... { 
....................    pwm_st[9] = map_int(angle10, 0, 180, v_min, v_max); 
.................... } 
.................... #endif 
....................  
....................  
.................... // Função para movimentar o servo gradualmente 
.................... void move_servo_gradual(int servo, int from_angle, int to_angle, int step_delay) { 
....................    int i; 
....................    if (from_angle < to_angle) { 
*
014C:  MOVF   36,W
014D:  SUBWF  35,W
014E:  BTFSC  03.0
014F:  GOTO   171
....................       for (i = from_angle; i <= to_angle; i++) { 
0150:  MOVF   35,W
0151:  MOVWF  38
0152:  MOVF   38,W
0153:  SUBWF  36,W
0154:  BTFSS  03.0
0155:  GOTO   170
....................          if (servo == 1) { 
0156:  DECFSZ 34,W
0157:  GOTO   15C
....................             servo_1_write(i); 
0158:  MOVF   38,W
0159:  MOVWF  39
015A:  CALL   101
....................          } else if (servo == 2) { 
015B:  GOTO   16B
015C:  MOVF   34,W
015D:  SUBLW  02
015E:  BTFSS  03.2
015F:  GOTO   164
....................             servo_2_write(i); 
0160:  MOVF   38,W
0161:  MOVWF  39
0162:  CALL   113
....................          } else if (servo == 3) { 
0163:  GOTO   16B
0164:  MOVF   34,W
0165:  SUBLW  03
0166:  BTFSS  03.2
0167:  GOTO   16B
....................             servo_3_write(i); 
0168:  MOVF   38,W
0169:  MOVWF  39
016A:  CALL   125
....................          } 
....................          delay_ms(step_delay); 
016B:  MOVF   37,W
016C:  MOVWF  39
016D:  CALL   137
....................       } 
016E:  INCF   38,F
016F:  GOTO   152
....................    } else { 
0170:  GOTO   191
....................       for (i = from_angle; i >= to_angle; i--) { 
0171:  MOVF   35,W
0172:  MOVWF  38
0173:  MOVF   36,W
0174:  SUBWF  38,W
0175:  BTFSS  03.0
0176:  GOTO   191
....................          if (servo == 1) { 
0177:  DECFSZ 34,W
0178:  GOTO   17D
....................             servo_1_write(i); 
0179:  MOVF   38,W
017A:  MOVWF  39
017B:  CALL   101
....................          } else if (servo == 2) { 
017C:  GOTO   18C
017D:  MOVF   34,W
017E:  SUBLW  02
017F:  BTFSS  03.2
0180:  GOTO   185
....................             servo_2_write(i); 
0181:  MOVF   38,W
0182:  MOVWF  39
0183:  CALL   113
....................          } else if (servo == 3) { 
0184:  GOTO   18C
0185:  MOVF   34,W
0186:  SUBLW  03
0187:  BTFSS  03.2
0188:  GOTO   18C
....................             servo_3_write(i); 
0189:  MOVF   38,W
018A:  MOVWF  39
018B:  CALL   125
....................          } 
....................          delay_ms(step_delay); 
018C:  MOVF   37,W
018D:  MOVWF  39
018E:  CALL   137
....................       } 
018F:  DECF   38,F
0190:  GOTO   173
....................    } 
.................... } 
0191:  RETURN
....................  
.................... void main() { 
0192:  CLRF   04
0193:  BCF    03.7
0194:  MOVLW  1F
0195:  ANDWF  03,F
0196:  CLRF   28
0197:  CLRF   27
0198:  BSF    03.5
0199:  BSF    1F.0
019A:  BSF    1F.1
019B:  BSF    1F.2
019C:  BCF    1F.3
019D:  MOVLW  07
019E:  MOVWF  1C
....................    setup_adc_ports(NO_ANALOGS); 
*
01A2:  BSF    03.5
01A3:  BSF    1F.0
01A4:  BSF    1F.1
01A5:  BSF    1F.2
01A6:  BCF    1F.3
....................    setup_adc(ADC_CLOCK_DIV_2); 
01A7:  BCF    1F.6
01A8:  BCF    03.5
01A9:  BCF    1F.6
01AA:  BCF    1F.7
01AB:  BSF    03.5
01AC:  BCF    1F.7
01AD:  BCF    03.5
01AE:  BSF    1F.0
....................    setup_psp(PSP_DISABLED); 
01AF:  BSF    03.5
01B0:  BCF    09.4
....................    setup_spi(SPI_SS_DISABLED); 
01B1:  BCF    03.5
01B2:  BCF    14.5
01B3:  BCF    33.5
01B4:  MOVF   33,W
01B5:  BSF    03.5
01B6:  MOVWF  07
01B7:  BCF    03.5
01B8:  BSF    33.4
01B9:  MOVF   33,W
01BA:  BSF    03.5
01BB:  MOVWF  07
01BC:  BCF    03.5
01BD:  BCF    33.3
01BE:  MOVF   33,W
01BF:  BSF    03.5
01C0:  MOVWF  07
01C1:  MOVLW  01
01C2:  BCF    03.5
01C3:  MOVWF  14
01C4:  MOVLW  00
01C5:  BSF    03.5
01C6:  MOVWF  14
....................    setup_timer_0(RTCC_INTERNAL|RTCC_DIV_1); 
01C7:  MOVF   01,W
01C8:  ANDLW  C7
01C9:  IORLW  08
01CA:  MOVWF  01
....................    setup_timer_1(T1_DISABLED); 
01CB:  BCF    03.5
01CC:  CLRF   10
....................    setup_timer_2(T2_DISABLED,0,1); 
01CD:  MOVLW  00
01CE:  MOVWF  78
01CF:  MOVWF  12
01D0:  MOVLW  00
01D1:  BSF    03.5
01D2:  MOVWF  12
....................    setup_comparator(NC_NC_NC_NC); 
01D3:  MOVLW  07
01D4:  MOVWF  1C
01D5:  MOVF   05,W
01D6:  MOVWF  05
01D7:  MOVLW  04
01D8:  MOVWF  77
01D9:  DECFSZ 77,F
01DA:  GOTO   1D9
01DB:  GOTO   1DC
01DC:  MOVF   1C,W
01DD:  BCF    03.5
01DE:  BCF    0D.6
....................    setup_vref(FALSE); 
01DF:  BSF    03.5
01E0:  CLRF   1D
....................  
....................    servo_init(); 
01E1:  BCF    03.5
01E2:  GOTO   074
....................    servo_1_write(0); 
01E3:  CLRF   39
01E4:  CALL   101
....................    servo_2_write(0); 
01E5:  CLRF   39
01E6:  CALL   113
....................    servo_3_write(0); 
01E7:  CLRF   39
01E8:  CALL   125
....................    delay_ms(1000); 
01E9:  MOVLW  04
01EA:  MOVWF  34
01EB:  MOVLW  FA
01EC:  MOVWF  39
01ED:  CALL   137
01EE:  DECFSZ 34,F
01EF:  GOTO   1EB
....................  
....................    while(true) { 
....................       move_servo_gradual(1, 0, 90, 20); // Move servo 1 de 0 a 90 graus 
01F0:  MOVLW  01
01F1:  MOVWF  34
01F2:  CLRF   35
01F3:  MOVLW  5A
01F4:  MOVWF  36
01F5:  MOVLW  14
01F6:  MOVWF  37
01F7:  CALL   14C
....................       delay_ms(1000); 
01F8:  MOVLW  04
01F9:  MOVWF  34
01FA:  MOVLW  FA
01FB:  MOVWF  39
01FC:  CALL   137
01FD:  DECFSZ 34,F
01FE:  GOTO   1FA
....................       move_servo_gradual(2, 0, 90, 20); // Move servo 2 de 0 a 90 graus 
01FF:  MOVLW  02
0200:  MOVWF  34
0201:  CLRF   35
0202:  MOVLW  5A
0203:  MOVWF  36
0204:  MOVLW  14
0205:  MOVWF  37
0206:  CALL   14C
....................       delay_ms(1000); 
0207:  MOVLW  04
0208:  MOVWF  34
0209:  MOVLW  FA
020A:  MOVWF  39
020B:  CALL   137
020C:  DECFSZ 34,F
020D:  GOTO   209
....................       move_servo_gradual(3, 0, 90, 20); // Move servo 3 de 0 a 90 graus 
020E:  MOVLW  03
020F:  MOVWF  34
0210:  CLRF   35
0211:  MOVLW  5A
0212:  MOVWF  36
0213:  MOVLW  14
0214:  MOVWF  37
0215:  CALL   14C
....................       delay_ms(1000); 
0216:  MOVLW  04
0217:  MOVWF  34
0218:  MOVLW  FA
0219:  MOVWF  39
021A:  CALL   137
021B:  DECFSZ 34,F
021C:  GOTO   218
....................  
....................       move_servo_gradual(1, 90, 180, 20); // Move servo 1 de 90 a 180 graus 
021D:  MOVLW  01
021E:  MOVWF  34
021F:  MOVLW  5A
0220:  MOVWF  35
0221:  MOVLW  B4
0222:  MOVWF  36
0223:  MOVLW  14
0224:  MOVWF  37
0225:  CALL   14C
....................       delay_ms(1000); 
0226:  MOVLW  04
0227:  MOVWF  34
0228:  MOVLW  FA
0229:  MOVWF  39
022A:  CALL   137
022B:  DECFSZ 34,F
022C:  GOTO   228
....................       move_servo_gradual(2, 90, 180, 20); // Move servo 2 de 90 a 180 graus 
022D:  MOVLW  02
022E:  MOVWF  34
022F:  MOVLW  5A
0230:  MOVWF  35
0231:  MOVLW  B4
0232:  MOVWF  36
0233:  MOVLW  14
0234:  MOVWF  37
0235:  CALL   14C
....................       delay_ms(1000); 
0236:  MOVLW  04
0237:  MOVWF  34
0238:  MOVLW  FA
0239:  MOVWF  39
023A:  CALL   137
023B:  DECFSZ 34,F
023C:  GOTO   238
....................       move_servo_gradual(3, 90, 180, 20); // Move servo 3 de 90 a 180 graus 
023D:  MOVLW  03
023E:  MOVWF  34
023F:  MOVLW  5A
0240:  MOVWF  35
0241:  MOVLW  B4
0242:  MOVWF  36
0243:  MOVLW  14
0244:  MOVWF  37
0245:  CALL   14C
....................       delay_ms(1000); 
0246:  MOVLW  04
0247:  MOVWF  34
0248:  MOVLW  FA
0249:  MOVWF  39
024A:  CALL   137
024B:  DECFSZ 34,F
024C:  GOTO   248
....................  
....................       move_servo_gradual(1, 180, 0, 20); // Move servo 1 de 180 a 0 graus 
024D:  MOVLW  01
024E:  MOVWF  34
024F:  MOVLW  B4
0250:  MOVWF  35
0251:  CLRF   36
0252:  MOVLW  14
0253:  MOVWF  37
0254:  CALL   14C
....................       delay_ms(1000); 
0255:  MOVLW  04
0256:  MOVWF  34
0257:  MOVLW  FA
0258:  MOVWF  39
0259:  CALL   137
025A:  DECFSZ 34,F
025B:  GOTO   257
....................       move_servo_gradual(2, 180, 90, 20); // Move servo 2 de 180 a 90 graus 
025C:  MOVLW  02
025D:  MOVWF  34
025E:  MOVLW  B4
025F:  MOVWF  35
0260:  MOVLW  5A
0261:  MOVWF  36
0262:  MOVLW  14
0263:  MOVWF  37
0264:  CALL   14C
....................       delay_ms(1000); 
0265:  MOVLW  04
0266:  MOVWF  34
0267:  MOVLW  FA
0268:  MOVWF  39
0269:  CALL   137
026A:  DECFSZ 34,F
026B:  GOTO   267
....................       move_servo_gradual(3, 180, 90, 20); // Move servo 3 de 180 a 90 graus 
026C:  MOVLW  03
026D:  MOVWF  34
026E:  MOVLW  B4
026F:  MOVWF  35
0270:  MOVLW  5A
0271:  MOVWF  36
0272:  MOVLW  14
0273:  MOVWF  37
0274:  CALL   14C
....................       delay_ms(1000); 
0275:  MOVLW  04
0276:  MOVWF  34
0277:  MOVLW  FA
0278:  MOVWF  39
0279:  CALL   137
027A:  DECFSZ 34,F
027B:  GOTO   277
....................  
....................       move_servo_gradual(1, 0, 90, 20); // Move servo 1 de 0 a 90 graus 
027C:  MOVLW  01
027D:  MOVWF  34
027E:  CLRF   35
027F:  MOVLW  5A
0280:  MOVWF  36
0281:  MOVLW  14
0282:  MOVWF  37
0283:  CALL   14C
....................       delay_ms(1000); 
0284:  MOVLW  04
0285:  MOVWF  34
0286:  MOVLW  FA
0287:  MOVWF  39
0288:  CALL   137
0289:  DECFSZ 34,F
028A:  GOTO   286
....................       move_servo_gradual(2, 0, 0, 20); // Move servo 2 de 0 a 0 graus 
028B:  MOVLW  02
028C:  MOVWF  34
028D:  CLRF   35
028E:  CLRF   36
028F:  MOVLW  14
0290:  MOVWF  37
0291:  CALL   14C
....................       delay_ms(1000); 
0292:  MOVLW  04
0293:  MOVWF  34
0294:  MOVLW  FA
0295:  MOVWF  39
0296:  CALL   137
0297:  DECFSZ 34,F
0298:  GOTO   294
....................       move_servo_gradual(3, 0, 0, 20); // Move servo 3 de 0 a 0 graus 
0299:  MOVLW  03
029A:  MOVWF  34
029B:  CLRF   35
029C:  CLRF   36
029D:  MOVLW  14
029E:  MOVWF  37
029F:  CALL   14C
....................       delay_ms(1000); 
02A0:  MOVLW  04
02A1:  MOVWF  34
02A2:  MOVLW  FA
02A3:  MOVWF  39
02A4:  CALL   137
02A5:  DECFSZ 34,F
02A6:  GOTO   2A2
....................    } 
02A7:  GOTO   1F0
.................... } 
....................  
02A8:  SLEEP

Configuration Fuses:
   Word  1: 3F3A   HS NOWDT NOPUT NODEBUG NOPROTECT NOBROWNOUT NOLVP NOCPD NOWRT
