CCS PCM C Compiler, Version 4.104, 5967               05-mar-24 18:10

               Filename: C:\Users\julio\OneDrive\Documentos\Julio Cesar Jauer\Eng. da Comp. IFMT\Microcontroladores\LCD_I2C\mainLCD_I2C.lst

               ROM used: 1048 words (13%)
                         Largest free fragment is 2048
               RAM used: 14 (4%) at main() level
                         31 (8%) worst case
               Stack:    6 locations

*
0000:  MOVLW  02
0001:  MOVWF  0A
0002:  GOTO   2C7
0003:  NOP
.................... #include <16F877A.h> 
.................... //////// Standard Header file for the PIC16F877A device //////////////// 
.................... #device PIC16F877A 
.................... #list 
....................  
.................... #device adc=8 
....................  
.................... #FUSES NOWDT                    //No Watch Dog Timer 
.................... #FUSES HS                       //High speed Osc (> 4mhz for PCM/PCH) (>10mhz for PCD) 
.................... #FUSES NOPUT                    //No Power Up Timer 
.................... #FUSES NOPROTECT                //Code not protected from reading 
.................... #FUSES NODEBUG                  //No Debug mode for ICD 
.................... #FUSES BROWNOUT                 //Reset when brownout detected 
.................... #FUSES NOLVP                    //No low voltage prgming, B3(PIC16) or B5(PIC18) used for I/O 
.................... #FUSES NOCPD                    //No EE protection 
.................... #FUSES NOWRT                    //Program memory not write protected 
.................... #FUSES RESERVED                 //Used to set the reserved FUSE bits 
....................  
.................... #use delay(clock=6000000) 
*
008A:  MOVLW  2C
008B:  MOVWF  04
008C:  BCF    03.7
008D:  MOVF   00,W
008E:  BTFSC  03.2
008F:  GOTO   09E
0090:  MOVLW  01
0091:  MOVWF  78
0092:  CLRF   77
0093:  DECFSZ 77,F
0094:  GOTO   093
0095:  DECFSZ 78,F
0096:  GOTO   092
0097:  MOVLW  F1
0098:  MOVWF  77
0099:  DECFSZ 77,F
009A:  GOTO   099
009B:  NOP
009C:  DECFSZ 00,F
009D:  GOTO   090
009E:  RETURN
....................  
.................... #use i2c(Master,Fast=100000, sda=PIN_C4, scl=PIN_C3,force_sw)   
009F:  MOVLW  08
00A0:  MOVWF  78
00A1:  NOP
00A2:  BCF    07.3
00A3:  BCF    20.3
00A4:  MOVF   20,W
00A5:  BSF    03.5
00A6:  MOVWF  07
00A7:  NOP
00A8:  BCF    03.5
00A9:  RLF    39,F
00AA:  BCF    07.4
00AB:  BTFSS  03.0
00AC:  GOTO   0B3
00AD:  BSF    20.4
00AE:  MOVF   20,W
00AF:  BSF    03.5
00B0:  MOVWF  07
00B1:  GOTO   0B7
00B2:  BCF    03.5
00B3:  BCF    20.4
00B4:  MOVF   20,W
00B5:  BSF    03.5
00B6:  MOVWF  07
00B7:  NOP
00B8:  BCF    03.5
00B9:  BSF    20.3
00BA:  MOVF   20,W
00BB:  BSF    03.5
00BC:  MOVWF  07
00BD:  BCF    03.5
00BE:  BTFSS  07.3
00BF:  GOTO   0BE
00C0:  DECFSZ 78,F
00C1:  GOTO   0A1
00C2:  NOP
00C3:  BCF    07.3
00C4:  BCF    20.3
00C5:  MOVF   20,W
00C6:  BSF    03.5
00C7:  MOVWF  07
00C8:  NOP
00C9:  BCF    03.5
00CA:  BSF    20.4
00CB:  MOVF   20,W
00CC:  BSF    03.5
00CD:  MOVWF  07
00CE:  NOP
00CF:  NOP
00D0:  BCF    03.5
00D1:  BSF    20.3
00D2:  MOVF   20,W
00D3:  BSF    03.5
00D4:  MOVWF  07
00D5:  BCF    03.5
00D6:  BTFSS  07.3
00D7:  GOTO   0D6
00D8:  CLRF   78
00D9:  NOP
00DA:  BTFSC  07.4
00DB:  BSF    78.0
00DC:  BCF    07.3
00DD:  BCF    20.3
00DE:  MOVF   20,W
00DF:  BSF    03.5
00E0:  MOVWF  07
00E1:  BCF    03.5
00E2:  BCF    07.4
00E3:  BCF    20.4
00E4:  MOVF   20,W
00E5:  BSF    03.5
00E6:  MOVWF  07
00E7:  BCF    03.5
00E8:  RETURN
.................... #include "i2c_Flex_LCD.c"   
.................... //-----------------------------------------------------------------------------  
.................... // Title:         i2c_Flex_LCD  
.................... // Description:   Driver for common LCD with 1/2/3 or 4 rows by 1...20 columns  
.................... //                using PCF8574T interface board with I2C protocol.  
.................... // Date:          Nov-2013  
.................... // Ver.Rev.:      1.1  
.................... // Author:        Hugo Silva (sergio-hugo@bol.com.br) #Based on the routines of  
.................... //                "20X4_LCD_I2C_DRIVER.h" from Pumrin S. and "lcd4_i2c.c" from XP8100  
.................... //-----------------------------------------------------------------------------  
.................... //  
.................... // lcd_init() Must be called before any other function.  
.................... //  
.................... // lcd_putc(c) Will display c on the next position of the LCD.  
.................... //   
.................... //     \f Clear LCD display  
.................... //     \n Set write position on next lcd line  
.................... //     \b LCD backspace  
.................... //     lcd_gotoxy(x,y) Set write position on LCD (upper left is 1,1)  
.................... //  
.................... // lcd_backlight_led(ON)/lcd_backlight_led(OFF) = Turn ON/OFF LCD Backlight LED  
.................... //  
.................... //-----------------------------------------------------------------------------  
.................... // LCD pins D0-D3 are not used.  
.................... //-----------------------------------------------------------------------------  
.................... //  
.................... // Comment   : Control of a compatible LCD (1...4 rows by 1...4 columns) from  
.................... //              a bus I2C with an EXPANDER of I/O with connection I2C.  
.................... //              The tests of these routines have been programmed using the IC  
.................... //              Phillips PCF8574T. I've used 4 bits mode programming.  
.................... //              The 8 bits mode programming is possible if you use 2 x PCF8574T.  
.................... //              RW Pin is not being used.  
.................... //  
.................... // As defined in the following structure the pin connection is as follows:  
.................... //  
.................... //  PCF8574P     LCD  
.................... //  ========     ======  
.................... //     P0        RS  
.................... //     P1        RW    (Not used!)  
.................... //     P2        Enable   
.................... //     P3        Led Backlight  
.................... //     P4        D4  
.................... //     P5        D5  
.................... //     P6        D6  
.................... //     P7        D7  
.................... //  
.................... //  The SCL and SDA pins should be pull-up resistor as shown below:  
.................... //  
.................... //             +5v  
.................... //               |  
.................... //               <  
.................... //               > 4.7K         
.................... //               <           
.................... //To PIC         |          To i2c slave  
.................... //pin xx ------------------ SDA pin   
.................... //(SDA)                       
.................... //              +5v  
.................... //               |  
.................... //               <  
.................... //               > 4.7K         
.................... //               <           
.................... //To PIC         |          To i2c slave  
.................... //pin xx ------------------ SCL pin   
.................... //(SCL)  
.................... //  
.................... //To PIC                    To i2c slave  
.................... //Vss pin ----------------- Vss or ground pin   
.................... //                |  
.................... //              -----  
.................... //               ---  Ground  
.................... //                -   
.................... //   
.................... // THIS DOCUMENT IS PROVIDED TO THE USER "AS IS"  
.................... //-----------------------------------------------------------------------------  
.................... byte LCD_ADDR ;//             0x4E        //I2C slave address for LCD module  
.................... byte lcd_total_rows ;//       2           //Number of rows: 1,2,3 or 4  
.................... byte lcd_total_columns ;//    16          //Number of columns: 1...20    
....................  
.................... #define RS                    0b00000001  //P0 - PCF8574T Pin connected to RS  
.................... #define RW                    0b00000010  //P1 - PCF8574T Pin connected to RW  
.................... #define ENABLE                0b00000100  //P2 - PCF8574T Pin connected to EN  
.................... #define LCD_BACKLIGHT         0b00001000  //P3 - PCF8574T Pin connected to BACKLIGHT LED  
....................  
.................... #define addr_row_one          0x00        //LCD RAM address for row 1  
.................... #define addr_row_two          0x40        //LCD RAM address for row 2  
.................... #define addr_row_three        0x14        //LCD RAM address for row 3  
.................... #define addr_row_four         0x54        //LCD RAM address for row 4  
....................  
.................... #define ON                    1  
.................... #define OFF                   0  
.................... #define NOT                   ~  
.................... #define data_shifted          data<<4  
.................... int8 new_row_request=1, BACKLIGHT_LED=LCD_BACKLIGHT;  
....................  
.................... void lcd_backlight_led(byte bl)  
.................... {   
....................       If (bl) BACKLIGHT_LED=LCD_BACKLIGHT; else BACKLIGHT_LED=OFF;  
*
01F4:  MOVF   28,F
01F5:  BTFSC  03.2
01F6:  GOTO   1FA
01F7:  MOVLW  08
01F8:  MOVWF  25
01F9:  GOTO   1FB
01FA:  CLRF   25
.................... }  
01FB:  RETURN
....................  
.................... void i2c_send_nibble(byte data, byte type)  
.................... {     
....................    switch (type)  
....................    {       
*
00E9:  MOVF   37,W
00EA:  XORLW  00
00EB:  BTFSC  03.2
00EC:  GOTO   0F1
00ED:  XORLW  01
00EE:  BTFSC  03.2
00EF:  GOTO   112
00F0:  GOTO   135
....................       case 0 :       
....................       i2c_write(data_shifted | BACKLIGHT_LED);  
00F1:  SWAPF  36,W
00F2:  MOVWF  77
00F3:  MOVLW  F0
00F4:  ANDWF  77,F
00F5:  MOVF   77,W
00F6:  IORWF  25,W
00F7:  MOVWF  38
00F8:  MOVWF  39
00F9:  CALL   09F
....................       delay_cycles(1);  
00FA:  NOP
....................       i2c_write(data_shifted | ENABLE | BACKLIGHT_LED );  
00FB:  SWAPF  36,W
00FC:  MOVWF  77
00FD:  MOVLW  F0
00FE:  ANDWF  77,F
00FF:  MOVF   77,W
0100:  IORLW  04
0101:  IORWF  25,W
0102:  MOVWF  38
0103:  MOVWF  39
0104:  CALL   09F
....................       delay_us(2);  
0105:  GOTO   106
0106:  NOP
....................       i2c_write(data_shifted & NOT ENABLE | BACKLIGHT_LED);  
0107:  SWAPF  36,W
0108:  MOVWF  77
0109:  MOVLW  F0
010A:  ANDWF  77,F
010B:  MOVF   77,W
010C:  ANDLW  FB
010D:  IORWF  25,W
010E:  MOVWF  38
010F:  MOVWF  39
0110:  CALL   09F
....................       break;  
0111:  GOTO   135
....................        
....................       case 1 :  
....................       i2c_write(data_shifted | RS | BACKLIGHT_LED);  
0112:  SWAPF  36,W
0113:  MOVWF  77
0114:  MOVLW  F0
0115:  ANDWF  77,F
0116:  MOVF   77,W
0117:  IORLW  01
0118:  IORWF  25,W
0119:  MOVWF  38
011A:  MOVWF  39
011B:  CALL   09F
....................       delay_cycles(1);  
011C:  NOP
....................       i2c_write(data_shifted | RS | ENABLE | BACKLIGHT_LED );  
011D:  SWAPF  36,W
011E:  MOVWF  77
011F:  MOVLW  F0
0120:  ANDWF  77,F
0121:  MOVF   77,W
0122:  IORLW  01
0123:  IORLW  04
0124:  IORWF  25,W
0125:  MOVWF  38
0126:  MOVWF  39
0127:  CALL   09F
....................       delay_us(2);  
0128:  GOTO   129
0129:  NOP
....................       i2c_write(data_shifted | RS | BACKLIGHT_LED);  
012A:  SWAPF  36,W
012B:  MOVWF  77
012C:  MOVLW  F0
012D:  ANDWF  77,F
012E:  MOVF   77,W
012F:  IORLW  01
0130:  IORWF  25,W
0131:  MOVWF  38
0132:  MOVWF  39
0133:  CALL   09F
....................       break;  
0134:  GOTO   135
....................    }  
.................... }  
0135:  RETURN
....................      
.................... void lcd_send_byte(byte data, byte type)  
....................    {  
....................         i2c_start();  
0136:  BSF    20.4
0137:  MOVF   20,W
0138:  BSF    03.5
0139:  MOVWF  07
013A:  NOP
013B:  BCF    03.5
013C:  BSF    20.3
013D:  MOVF   20,W
013E:  BSF    03.5
013F:  MOVWF  07
0140:  NOP
0141:  BCF    03.5
0142:  BCF    07.4
0143:  BCF    20.4
0144:  MOVF   20,W
0145:  BSF    03.5
0146:  MOVWF  07
0147:  NOP
0148:  BCF    03.5
0149:  BCF    07.3
014A:  BCF    20.3
014B:  MOVF   20,W
014C:  BSF    03.5
014D:  MOVWF  07
....................         i2c_write(LCD_ADDR);  
014E:  BCF    03.5
014F:  MOVF   21,W
0150:  MOVWF  39
0151:  CALL   09F
....................         i2c_send_nibble(data >> 4 , type);  
0152:  SWAPF  33,W
0153:  MOVWF  35
0154:  MOVLW  0F
0155:  ANDWF  35,F
0156:  MOVF   35,W
0157:  MOVWF  36
0158:  MOVF   34,W
0159:  MOVWF  37
015A:  CALL   0E9
....................         i2c_send_nibble(data & 0xf , type);  
015B:  MOVF   33,W
015C:  ANDLW  0F
015D:  MOVWF  35
015E:  MOVWF  36
015F:  MOVF   34,W
0160:  MOVWF  37
0161:  CALL   0E9
....................         i2c_stop();         
0162:  BCF    20.4
0163:  MOVF   20,W
0164:  BSF    03.5
0165:  MOVWF  07
0166:  NOP
0167:  BCF    03.5
0168:  BSF    20.3
0169:  MOVF   20,W
016A:  BSF    03.5
016B:  MOVWF  07
016C:  BCF    03.5
016D:  BTFSS  07.3
016E:  GOTO   16D
016F:  NOP
0170:  GOTO   171
0171:  NOP
0172:  BSF    20.4
0173:  MOVF   20,W
0174:  BSF    03.5
0175:  MOVWF  07
0176:  NOP
....................    }  
0177:  BCF    03.5
0178:  RETURN
....................  
.................... void lcd_clear()  
.................... {   
....................         lcd_send_byte(0x01,0);  
0179:  MOVLW  01
017A:  MOVWF  33
017B:  CLRF   34
017C:  CALL   136
....................         delay_ms(2);  
017D:  MOVLW  02
017E:  MOVWF  2C
017F:  CALL   08A
....................         new_row_request=1;  
0180:  MOVLW  01
0181:  MOVWF  24
.................... }  
0182:  RETURN
....................  
.................... void lcd_init(byte ADDR, byte col, byte row)  
.................... {  
....................    byte i; 
....................    byte CONST lcd_type=2;  // 0=5x7, 1=5x10, 2=2 lines  
....................    byte CONST LCD_INIT_STRING[4] = {0x20 | (lcd_type << 2), 0xc, 1, 6}; // These bytes need to be sent to the LCD to start it up. 
....................     
....................    LCD_ADDR =ADDR;//             0x4E        //I2C slave address for LCD module  
0183:  MOVF   28,W
0184:  MOVWF  21
....................    lcd_total_rows =row;//       2           //Number of rows: 1,2,3 or 4  
0185:  MOVF   2A,W
0186:  MOVWF  22
....................    lcd_total_columns= col ; 
0187:  MOVF   29,W
0188:  MOVWF  23
....................    disable_interrupts(GLOBAL);  
0189:  BCF    0B.6
018A:  BCF    0B.7
018B:  BTFSC  0B.7
018C:  GOTO   18A
....................    delay_ms(50); //LCD power up delay  
018D:  MOVLW  32
018E:  MOVWF  2C
018F:  CALL   08A
....................      
....................    i2c_start();  
0190:  BSF    20.4
0191:  MOVF   20,W
0192:  BSF    03.5
0193:  MOVWF  07
0194:  NOP
0195:  BCF    03.5
0196:  BSF    20.3
0197:  MOVF   20,W
0198:  BSF    03.5
0199:  MOVWF  07
019A:  NOP
019B:  BCF    03.5
019C:  BCF    07.4
019D:  BCF    20.4
019E:  MOVF   20,W
019F:  BSF    03.5
01A0:  MOVWF  07
01A1:  NOP
01A2:  BCF    03.5
01A3:  BCF    07.3
01A4:  BCF    20.3
01A5:  MOVF   20,W
01A6:  BSF    03.5
01A7:  MOVWF  07
....................    i2c_write(LCD_ADDR);  
01A8:  BCF    03.5
01A9:  MOVF   21,W
01AA:  MOVWF  39
01AB:  CALL   09F
....................       i2c_send_nibble(0x00,0);  
01AC:  CLRF   36
01AD:  CLRF   37
01AE:  CALL   0E9
....................       delay_ms(15);  
01AF:  MOVLW  0F
01B0:  MOVWF  2C
01B1:  CALL   08A
....................      
....................    for (i=1;i<=3;++i)     
01B2:  MOVLW  01
01B3:  MOVWF  2B
01B4:  MOVF   2B,W
01B5:  SUBLW  03
01B6:  BTFSS  03.0
01B7:  GOTO   1C1
....................    {  
....................       i2c_send_nibble(0x03,0);  
01B8:  MOVLW  03
01B9:  MOVWF  36
01BA:  CLRF   37
01BB:  CALL   0E9
....................       delay_ms(5);  
01BC:  MOVLW  05
01BD:  MOVWF  2C
01BE:  CALL   08A
....................    }     
01BF:  INCF   2B,F
01C0:  GOTO   1B4
....................       i2c_send_nibble(0x02,0);  
01C1:  MOVLW  02
01C2:  MOVWF  36
01C3:  CLRF   37
01C4:  CALL   0E9
....................       delay_ms(5);  
01C5:  MOVLW  05
01C6:  MOVWF  2C
01C7:  CALL   08A
....................    i2c_stop();  
01C8:  BCF    20.4
01C9:  MOVF   20,W
01CA:  BSF    03.5
01CB:  MOVWF  07
01CC:  NOP
01CD:  BCF    03.5
01CE:  BSF    20.3
01CF:  MOVF   20,W
01D0:  BSF    03.5
01D1:  MOVWF  07
01D2:  BCF    03.5
01D3:  BTFSS  07.3
01D4:  GOTO   1D3
01D5:  NOP
01D6:  GOTO   1D7
01D7:  NOP
01D8:  BSF    20.4
01D9:  MOVF   20,W
01DA:  BSF    03.5
01DB:  MOVWF  07
01DC:  NOP
....................      
....................    for (i=0;i<=3;++i) {  
01DD:  BCF    03.5
01DE:  CLRF   2B
01DF:  MOVF   2B,W
01E0:  SUBLW  03
01E1:  BTFSS  03.0
01E2:  GOTO   1EE
....................    lcd_send_byte(LCD_INIT_STRING[i],0);  
01E3:  MOVF   2B,W
01E4:  CALL   004
01E5:  MOVWF  2C
01E6:  MOVWF  33
01E7:  CLRF   34
01E8:  CALL   136
....................    delay_ms(5);  
01E9:  MOVLW  05
01EA:  MOVWF  2C
01EB:  CALL   08A
....................    }  
01EC:  INCF   2B,F
01ED:  GOTO   1DF
....................    lcd_clear();  //Clear Display  
01EE:  CALL   179
....................    enable_interrupts(GLOBAL);  
01EF:  MOVLW  C0
01F0:  IORWF  0B,F
.................... }  
01F1:  BCF    0A.3
01F2:  BCF    0A.4
01F3:  GOTO   2E2 (RETURN)
....................  
.................... void lcd_gotoxy( byte x, byte y)  
.................... {  
.................... byte row,column,row_addr,lcd_address;  
.................... static char data;  
*
02D9:  CLRF   26
....................  
....................    if (y>lcd_total_rows) row=lcd_total_rows; else row=y;  
*
01FC:  MOVF   2D,W
01FD:  SUBWF  22,W
01FE:  BTFSC  03.0
01FF:  GOTO   203
0200:  MOVF   22,W
0201:  MOVWF  2E
0202:  GOTO   205
0203:  MOVF   2D,W
0204:  MOVWF  2E
....................    
....................    switch(row)  
....................    {  
0205:  MOVF   2E,W
0206:  XORLW  01
0207:  BTFSC  03.2
0208:  GOTO   213
0209:  XORLW  03
020A:  BTFSC  03.2
020B:  GOTO   215
020C:  XORLW  01
020D:  BTFSC  03.2
020E:  GOTO   218
020F:  XORLW  07
0210:  BTFSC  03.2
0211:  GOTO   21B
0212:  GOTO   21E
....................       case 1:  row_addr=addr_row_one;     break;  
0213:  CLRF   30
0214:  GOTO   220
....................       case 2:  row_addr=addr_row_two;     break;  
0215:  MOVLW  40
0216:  MOVWF  30
0217:  GOTO   220
....................       case 3:  row_addr=addr_row_three;   break;  
0218:  MOVLW  14
0219:  MOVWF  30
021A:  GOTO   220
....................       case 4:  row_addr=addr_row_four;    break;  
021B:  MOVLW  54
021C:  MOVWF  30
021D:  GOTO   220
....................       default: row_addr=addr_row_one;     break;   
021E:  CLRF   30
021F:  GOTO   220
....................    }   
....................      
....................    if (x>lcd_total_columns) column=lcd_total_columns; else column=x;   
0220:  MOVF   2C,W
0221:  SUBWF  23,W
0222:  BTFSC  03.0
0223:  GOTO   227
0224:  MOVF   23,W
0225:  MOVWF  2F
0226:  GOTO   229
0227:  MOVF   2C,W
0228:  MOVWF  2F
....................    lcd_address=(row_addr+(column-1));  
0229:  MOVLW  01
022A:  SUBWF  2F,W
022B:  ADDWF  30,W
022C:  MOVWF  31
....................    lcd_send_byte(0x80|lcd_address,0);  
022D:  MOVF   31,W
022E:  IORLW  80
022F:  MOVWF  32
0230:  MOVWF  33
0231:  CLRF   34
0232:  CALL   136
.................... }  
0233:  RETURN
....................  
.................... //Display the character on LCD screen.  
.................... void LCD_PUTC(char in_data)  
.................... {     
....................   switch(in_data)  
....................    {   
0234:  MOVF   2B,W
0235:  XORLW  0C
0236:  BTFSC  03.2
0237:  GOTO   23F
0238:  XORLW  06
0239:  BTFSC  03.2
023A:  GOTO   241
023B:  XORLW  02
023C:  BTFSC  03.2
023D:  GOTO   24E
023E:  GOTO   253
....................      case '\f': lcd_clear();                       break;                 
023F:  CALL   179
0240:  GOTO   259
....................        
....................      case '\n':  
....................      new_row_request++;  
0241:  INCF   24,F
....................      if (new_row_request>lcd_total_rows) new_row_request=1;  
0242:  MOVF   24,W
0243:  SUBWF  22,W
0244:  BTFSC  03.0
0245:  GOTO   248
0246:  MOVLW  01
0247:  MOVWF  24
....................      lcd_gotoxy(1, new_row_request);  
0248:  MOVLW  01
0249:  MOVWF  2C
024A:  MOVF   24,W
024B:  MOVWF  2D
024C:  CALL   1FC
....................      break;  
024D:  GOTO   259
....................                    
....................      case '\b': lcd_send_byte(0x10,0);             break;  
024E:  MOVLW  10
024F:  MOVWF  33
0250:  CLRF   34
0251:  CALL   136
0252:  GOTO   259
....................          
....................      default: lcd_send_byte(in_data,1);            break;       
0253:  MOVF   2B,W
0254:  MOVWF  33
0255:  MOVLW  01
0256:  MOVWF  34
0257:  CALL   136
0258:  GOTO   259
....................        
....................    }  
.................... }  
0259:  RETURN
....................  
....................  
.................... void main() {   
*
0089:  DATA 00,00
*
02C7:  CLRF   04
02C8:  BCF    03.7
02C9:  MOVLW  1F
02CA:  ANDWF  03,F
02CB:  MOVLW  01
02CC:  MOVWF  24
02CD:  MOVLW  08
02CE:  MOVWF  25
02CF:  BSF    03.5
02D0:  BSF    1F.0
02D1:  BSF    1F.1
02D2:  BSF    1F.2
02D3:  BCF    1F.3
02D4:  MOVLW  07
02D5:  MOVWF  1C
*
02DA:  CLRF   27
....................    int i=0;  
....................    lcd_init(0x4E,16,2); 
02DB:  MOVLW  4E
02DC:  MOVWF  28
02DD:  MOVLW  10
02DE:  MOVWF  29
02DF:  MOVLW  02
02E0:  MOVWF  2A
02E1:  GOTO   183
....................    lcd_backlight_led(ON); //Enciende la luz de Fondo 
02E2:  MOVLW  01
02E3:  MOVWF  28
02E4:  CALL   1F4
....................       
....................  while (TRUE) {  
....................    lcd_clear();  //Limpia el LCD 
02E5:  CALL   179
....................  
....................    // Envio de Strings al LCD usando la función printf 
....................    printf(lcd_putc, "\fSuscribete a");  
02E6:  MOVLW  0C
02E7:  BSF    03.6
02E8:  MOVWF  0D
02E9:  MOVLW  00
02EA:  MOVWF  0F
02EB:  BCF    03.6
02EC:  CALL   25A
....................    delay_ms(1000);  
02ED:  MOVLW  04
02EE:  MOVWF  28
02EF:  MOVLW  FA
02F0:  MOVWF  2C
02F1:  CALL   08A
02F2:  DECFSZ 28,F
02F3:  GOTO   2EF
....................    printf(lcd_putc, "\nControl      ");  
02F4:  MOVLW  13
02F5:  BSF    03.6
02F6:  MOVWF  0D
02F7:  MOVLW  00
02F8:  MOVWF  0F
02F9:  BCF    03.6
02FA:  CALL   25A
....................    delay_ms(1000);  
02FB:  MOVLW  04
02FC:  MOVWF  28
02FD:  MOVLW  FA
02FE:  MOVWF  2C
02FF:  CALL   08A
0300:  DECFSZ 28,F
0301:  GOTO   2FD
....................    printf(lcd_putc, "\nAutomatico    ");  
0302:  MOVLW  1B
0303:  BSF    03.6
0304:  MOVWF  0D
0305:  MOVLW  00
0306:  MOVWF  0F
0307:  BCF    03.6
0308:  CALL   25A
....................    delay_ms(1000);  
0309:  MOVLW  04
030A:  MOVWF  28
030B:  MOVLW  FA
030C:  MOVWF  2C
030D:  CALL   08A
030E:  DECFSZ 28,F
030F:  GOTO   30B
....................    printf(lcd_putc, "\nEducacion     ");  
0310:  MOVLW  23
0311:  BSF    03.6
0312:  MOVWF  0D
0313:  MOVLW  00
0314:  MOVWF  0F
0315:  BCF    03.6
0316:  CALL   25A
....................    delay_ms(1000);  
0317:  MOVLW  04
0318:  MOVWF  28
0319:  MOVLW  FA
031A:  MOVWF  2C
031B:  CALL   08A
031C:  DECFSZ 28,F
031D:  GOTO   319
....................  
....................    printf(lcd_putc, "\fAprende:");  
031E:  MOVLW  2B
031F:  BSF    03.6
0320:  MOVWF  0D
0321:  MOVLW  00
0322:  MOVWF  0F
0323:  BCF    03.6
0324:  CALL   25A
....................    delay_ms(1000);  
0325:  MOVLW  04
0326:  MOVWF  28
0327:  MOVLW  FA
0328:  MOVWF  2C
0329:  CALL   08A
032A:  DECFSZ 28,F
032B:  GOTO   327
....................    printf(lcd_putc, "\n- PIC");  
032C:  MOVLW  30
032D:  BSF    03.6
032E:  MOVWF  0D
032F:  MOVLW  00
0330:  MOVWF  0F
0331:  BCF    03.6
0332:  CALL   25A
....................    delay_ms(1000);  
0333:  MOVLW  04
0334:  MOVWF  28
0335:  MOVLW  FA
0336:  MOVWF  2C
0337:  CALL   08A
0338:  DECFSZ 28,F
0339:  GOTO   335
....................    printf(lcd_putc, "\n- Arduino");  
033A:  MOVLW  34
033B:  BSF    03.6
033C:  MOVWF  0D
033D:  MOVLW  00
033E:  MOVWF  0F
033F:  BCF    03.6
0340:  CALL   25A
....................    delay_ms(1000);  
0341:  MOVLW  04
0342:  MOVWF  28
0343:  MOVLW  FA
0344:  MOVWF  2C
0345:  CALL   08A
0346:  DECFSZ 28,F
0347:  GOTO   343
....................    printf(lcd_putc, "\n- Control");  
0348:  MOVLW  3A
0349:  BSF    03.6
034A:  MOVWF  0D
034B:  MOVLW  00
034C:  MOVWF  0F
034D:  BCF    03.6
034E:  CALL   25A
....................    delay_ms(1000);  
034F:  MOVLW  04
0350:  MOVWF  28
0351:  MOVLW  FA
0352:  MOVWF  2C
0353:  CALL   08A
0354:  DECFSZ 28,F
0355:  GOTO   351
....................  
....................    // Limpia el LCD  
....................    printf(lcd_putc, "\f");  
0356:  MOVLW  0C
0357:  MOVWF  2B
0358:  CALL   234
....................    delay_ms(500);  
0359:  MOVLW  02
035A:  MOVWF  28
035B:  MOVLW  FA
035C:  MOVWF  2C
035D:  CALL   08A
035E:  DECFSZ 28,F
035F:  GOTO   35B
....................  
....................    //Función: lcd_gotoxy() 
....................    //Si colocan un gotoxy mayor al del LCD usado, la propia función 
....................    //internamente coloca los límites correctos. A modo de ejemplo 
....................    //coloquemos las esquinas correspondientes a un LCD 20x4 y la función 
....................    //Loa adaptará si se usa un LCD 16x2 
....................  
....................    lcd_gotoxy(3, 1);         
0360:  MOVLW  03
0361:  MOVWF  2C
0362:  MOVLW  01
0363:  MOVWF  2D
0364:  CALL   1FC
....................    printf(lcd_putc, "Numeros en");     
0365:  MOVLW  40
0366:  BSF    03.6
0367:  MOVWF  0D
0368:  MOVLW  00
0369:  MOVWF  0F
036A:  BCF    03.6
036B:  CALL   25A
....................    lcd_gotoxy(4, 2);         
036C:  MOVLW  04
036D:  MOVWF  2C
036E:  MOVLW  02
036F:  MOVWF  2D
0370:  CALL   1FC
....................    printf(lcd_putc, "Esquinas");  
0371:  MOVLW  46
0372:  BSF    03.6
0373:  MOVWF  0D
0374:  MOVLW  00
0375:  MOVWF  0F
0376:  BCF    03.6
0377:  CALL   25A
....................    delay_ms(500);  
0378:  MOVLW  02
0379:  MOVWF  28
037A:  MOVLW  FA
037B:  MOVWF  2C
037C:  CALL   08A
037D:  DECFSZ 28,F
037E:  GOTO   37A
....................    lcd_gotoxy(1, 1);         
037F:  MOVLW  01
0380:  MOVWF  2C
0381:  MOVWF  2D
0382:  CALL   1FC
....................    printf(lcd_putc, "1");  
0383:  MOVLW  31
0384:  MOVWF  2B
0385:  CALL   234
....................    delay_ms(500);  
0386:  MOVLW  02
0387:  MOVWF  28
0388:  MOVLW  FA
0389:  MOVWF  2C
038A:  CALL   08A
038B:  DECFSZ 28,F
038C:  GOTO   388
....................    lcd_gotoxy(20, 1);         
038D:  MOVLW  14
038E:  MOVWF  2C
038F:  MOVLW  01
0390:  MOVWF  2D
0391:  CALL   1FC
....................    printf(lcd_putc, "2");  
0392:  MOVLW  32
0393:  MOVWF  2B
0394:  CALL   234
....................    delay_ms(500);  
0395:  MOVLW  02
0396:  MOVWF  28
0397:  MOVLW  FA
0398:  MOVWF  2C
0399:  CALL   08A
039A:  DECFSZ 28,F
039B:  GOTO   397
....................    lcd_gotoxy(20, 4);         
039C:  MOVLW  14
039D:  MOVWF  2C
039E:  MOVLW  04
039F:  MOVWF  2D
03A0:  CALL   1FC
....................    printf(lcd_putc, "3");  
03A1:  MOVLW  33
03A2:  MOVWF  2B
03A3:  CALL   234
....................    delay_ms(500);  
03A4:  MOVLW  02
03A5:  MOVWF  28
03A6:  MOVLW  FA
03A7:  MOVWF  2C
03A8:  CALL   08A
03A9:  DECFSZ 28,F
03AA:  GOTO   3A6
....................    lcd_gotoxy(1, 4);         
03AB:  MOVLW  01
03AC:  MOVWF  2C
03AD:  MOVLW  04
03AE:  MOVWF  2D
03AF:  CALL   1FC
....................    printf(lcd_putc, "4");     
03B0:  MOVLW  34
03B1:  MOVWF  2B
03B2:  CALL   234
....................    delay_ms(2000);  
03B3:  MOVLW  08
03B4:  MOVWF  28
03B5:  MOVLW  FA
03B6:  MOVWF  2C
03B7:  CALL   08A
03B8:  DECFSZ 28,F
03B9:  GOTO   3B5
....................     
....................  
....................    // Prueba de la función de borrado Backspace 
....................    printf(lcd_putc, "\f ¡Suscribete!\n");  
03BA:  MOVLW  4B
03BB:  BSF    03.6
03BC:  MOVWF  0D
03BD:  MOVLW  00
03BE:  MOVWF  0F
03BF:  BCF    03.6
03C0:  GOTO   2A0
....................    printf(lcd_putc,   "Activa: CAMPANA");  
03C1:  MOVLW  5B
03C2:  BSF    03.6
03C3:  MOVWF  0D
03C4:  MOVLW  00
03C5:  MOVWF  0F
03C6:  BCF    03.6
03C7:  CALL   25A
....................    delay_ms(2000);  
03C8:  MOVLW  08
03C9:  MOVWF  28
03CA:  MOVLW  FA
03CB:  MOVWF  2C
03CC:  CALL   08A
03CD:  DECFSZ 28,F
03CE:  GOTO   3CA
....................  
....................    // Ultima columna y fila  2 
....................    //Borro la fila 2 con back space 
....................    lcd_gotoxy(20, 2);         
03CF:  MOVLW  14
03D0:  MOVWF  2C
03D1:  MOVLW  02
03D2:  MOVWF  2D
03D3:  CALL   1FC
....................  
....................    // Backspace over 2nd line.  
....................    for(i = 0; i < lcd_total_columns; i++)  
03D4:  CLRF   27
03D5:  MOVF   23,W
03D6:  SUBWF  27,W
03D7:  BTFSC  03.0
03D8:  GOTO   3E7
....................       {  
....................        printf(lcd_putc," \b\b");  
03D9:  MOVLW  20
03DA:  MOVWF  2B
03DB:  CALL   234
03DC:  MOVLW  08
03DD:  MOVWF  2B
03DE:  CALL   234
03DF:  MOVLW  08
03E0:  MOVWF  2B
03E1:  CALL   234
....................        delay_ms(100);  
03E2:  MOVLW  64
03E3:  MOVWF  2C
03E4:  CALL   08A
....................       }  
03E5:  INCF   27,F
03E6:  GOTO   3D5
....................  
....................    printf(lcd_putc,   " es GRATIS!!!!!!");   
03E7:  MOVLW  63
03E8:  BSF    03.6
03E9:  MOVWF  0D
03EA:  MOVLW  00
03EB:  MOVWF  0F
03EC:  BCF    03.6
03ED:  CALL   25A
....................    delay_ms(3000);  
03EE:  MOVLW  0C
03EF:  MOVWF  28
03F0:  MOVLW  FA
03F1:  MOVWF  2C
03F2:  CALL   08A
03F3:  DECFSZ 28,F
03F4:  GOTO   3F0
....................  
.................... //Apaga Luz de Fondo  
....................          lcd_backlight_led(OFF);  
03F5:  CLRF   28
03F6:  CALL   1F4
....................          printf(LCD_PUTC,"\fLCD BackLight\n     OFF      ");  
03F7:  MOVLW  6C
03F8:  BSF    03.6
03F9:  MOVWF  0D
03FA:  MOVLW  00
03FB:  MOVWF  0F
03FC:  BCF    03.6
03FD:  CALL   25A
....................          delay_ms(3000);  
03FE:  MOVLW  0C
03FF:  MOVWF  28
0400:  MOVLW  FA
0401:  MOVWF  2C
0402:  CALL   08A
0403:  DECFSZ 28,F
0404:  GOTO   400
....................  
.................... //Enciende Luz de Fondo 
....................          lcd_backlight_led(ON);  
0405:  MOVLW  01
0406:  MOVWF  28
0407:  CALL   1F4
....................          printf(LCD_PUTC,"\fLCD BackLight\n     ON      ");   
0408:  MOVLW  7B
0409:  BSF    03.6
040A:  MOVWF  0D
040B:  MOVLW  00
040C:  MOVWF  0F
040D:  BCF    03.6
040E:  CALL   25A
....................          delay_ms(3000);  
040F:  MOVLW  0C
0410:  MOVWF  28
0411:  MOVLW  FA
0412:  MOVWF  2C
0413:  CALL   08A
0414:  DECFSZ 28,F
0415:  GOTO   411
....................  
....................    }     
0416:  GOTO   2E5
.................... } 
0417:  SLEEP

Configuration Fuses:
   Word  1: 3F7A   HS NOWDT NOPUT NODEBUG NOPROTECT BROWNOUT NOLVP NOCPD NOWRT
